target datalayout = "e-m:e-p270:32:32-p271:32:32-p272:64:64-i64:64-i128:128-f80:128-n8:16:32:64-S128"
target triple = "x86_64-pc-linux-gnu"

%struct.SResource = type { ptr, i8, i8, i32, i32, i32, i32, i32, ptr, %struct.UString }
%struct.UString = type { ptr, i32, i32 }
%class.IntVectorResource = type { %struct.SResource, i64, i64, ptr }

@_ZL14gFormatVersion = internal global i32 3, align 4

; Function Attrs: mustprogress nounwind uwtable
define dso_local void @_ZN17IntVectorResource14handlePreWriteEPj(ptr noundef nonnull align 8 dereferenceable(80) %0, ptr noundef %1) unnamed_addr #4 align 2 {
  %3 = alloca ptr, align 8
  %4 = alloca ptr, align 8
  store ptr %0, ptr %3, align 8, !tbaa !89
  store ptr %1, ptr %4, align 8, !tbaa !96
  %5 = load ptr, ptr %3, align 8
  %6 = getelementptr inbounds nuw %class.IntVectorResource, ptr %5, i32 0, i32 1
  %7 = load i64, ptr %6, align 8, !tbaa !91
  %8 = icmp eq i64 %7, 0
  br i1 %8, label %9, label %15

9:                                                ; preds = %2
  %10 = load i32, ptr @_ZL14gFormatVersion, align 4, !tbaa !23
  %11 = icmp sgt i32 %10, 1
  br i1 %11, label %12, label %15

12:                                               ; preds = %9
  %13 = getelementptr inbounds nuw %struct.SResource, ptr %5, i32 0, i32 3
  store i32 -536870912, ptr %13, align 4, !tbaa !33
  %14 = getelementptr inbounds nuw %struct.SResource, ptr %5, i32 0, i32 2
  store i8 1, ptr %14, align 1, !tbaa !32
  br label %30

15:                                               ; preds = %9, %2
  %16 = load ptr, ptr %4, align 8, !tbaa !96
  %17 = load i32, ptr %16, align 4, !tbaa !23
  %18 = lshr i32 %17, 2
  %19 = or i32 -536870912, %18
  %20 = getelementptr inbounds nuw %struct.SResource, ptr %5, i32 0, i32 3
  store i32 %19, ptr %20, align 4, !tbaa !33
  %21 = getelementptr inbounds nuw %class.IntVectorResource, ptr %5, i32 0, i32 1
  %22 = load i64, ptr %21, align 8, !tbaa !91
  %23 = add i64 1, %22
  %24 = mul i64 %23, 4
  %25 = load ptr, ptr %4, align 8, !tbaa !96
  %26 = load i32, ptr %25, align 4, !tbaa !23
  %27 = zext i32 %26 to i64
  %28 = add i64 %27, %24
  %29 = trunc i64 %28 to i32
  store i32 %29, ptr %25, align 4, !tbaa !23
  br label %30

30:                                               ; preds = %15, %12
  ret void
}