; Function Attrs: mustprogress nofree norecurse nosync nounwind willreturn memory(read, argmem: readwrite, inaccessiblemem: none) uwtable
define dso_local void @_ZN17IntVectorResource14handlePreWriteEPj(ptr noundef nonnull align 8 captures(none) dereferenceable(80) initializes((12, 16)) %0, ptr noundef captures(none) %1) unnamed_addr #20 align 2 {
  %3 = getelementptr inbounds nuw i8, ptr %0, i64 56
  %4 = load i64, ptr %3, align 8, !tbaa !53
  %5 = icmp eq i64 %4, 0
  %6 = load i32, ptr @_ZL14gFormatVersion, align 4
  %7 = icmp sgt i32 %6, 1
  %or.cond = select i1 %5, i1 %7, i1 false
  br i1 %or.cond, label %8, label %11

8:                                                ; preds = %2
  %9 = getelementptr inbounds nuw i8, ptr %0, i64 12
  store i32 -536870912, ptr %9, align 4, !tbaa !20
  %10 = getelementptr inbounds nuw i8, ptr %0, i64 9
  store i8 1, ptr %10, align 1, !tbaa !17
  br label %20

11:                                               ; preds = %2
  %12 = load i32, ptr %1, align 4, !tbaa !7
  %13 = lshr i32 %12, 2
  %14 = or i32 %13, -536870912
  %15 = getelementptr inbounds nuw i8, ptr %0, i64 12
  store i32 %14, ptr %15, align 4, !tbaa !20
  %16 = load i32, ptr %1, align 4, !tbaa !7
  %.tr = trunc i64 %4 to i32
  %17 = shl i32 %.tr, 2
  %18 = add i32 %17, 4
  %19 = add i32 %18, %16
  store i32 %19, ptr %1, align 4, !tbaa !7
  br label %20

20:                                               ; preds = %11, %8
  ret void
}